; Function Attrs: mustprogress nofree nounwind willreturn memory(read) uwtable
define hidden noundef zeroext i1 @_ZN4cvc58internal6theory5arith6linear14ArithVariables16equalsLowerBoundEjRKNS0_13DeltaRationalE(ptr nocapture noundef nonnull readonly align 8 dereferenceable(568) %this, i32 noundef %x, ptr noundef nonnull readonly align 8 dereferenceable(64) %c) local_unnamed_addr #11 align 2 {
entry:
  %d_image.i.i = getelementptr inbounds i8, ptr %this, i64 48
  %conv.i.i = zext i32 %x to i64
  %0 = load ptr, ptr %d_image.i.i, align 8
  %d_lb.i = getelementptr inbounds %"class.cvc5::internal::theory::arith::linear::ArithVariables::VarInfo", ptr %0, i64 %conv.i.i, i32 3
  %1 = load ptr, ptr %d_lb.i, align 8
  %cmp.i.not = icmp eq ptr %1, null
  br i1 %cmp.i.not, label %return, label %if.else

if.else:                                          ; preds = %entry
  %k.i = getelementptr inbounds i8, ptr %c, i64 32
  %k2.i = getelementptr inbounds i8, ptr %1, i64 40
  %call.i.i.i.i = tail call i32 @__gmpq_equal(ptr noundef nonnull %k.i, ptr noundef nonnull %k2.i) #28
  %cmp.i.i.i.not.i = icmp eq i32 %call.i.i.i.i, 0
  br i1 %cmp.i.i.i.not.i, label %return, label %land.rhs.i

land.rhs.i:                                       ; preds = %if.else
  %d_value.i.i = getelementptr inbounds i8, ptr %1, i64 8
  %call.i.i.i2.i = tail call i32 @__gmpq_equal(ptr noundef nonnull %c, ptr noundef nonnull %d_value.i.i) #28
  %cmp.i.i.i3.i = icmp ne i32 %call.i.i.i2.i, 0
  br label %return

return:                                           ; preds = %land.rhs.i, %if.else, %entry
  %retval.0 = phi i1 [ false, %entry ], [ false, %if.else ], [ %cmp.i.i.i3.i, %land.rhs.i ]
  ret i1 %retval.0
}